target datalayout = "e-m:e-p270:32:32-p271:32:32-p272:64:64-i64:64-i128:128-f80:128-n8:16:32:64-S128"
target triple = "x86_64-pc-linux-gnu"

@.str = private unnamed_addr constant [41 x i8] c"../openssl/test/evp_pkey_provided_test.c\00", align 1
@.str.66 = private unnamed_addr constant [2 x i8] c"0\00", align 1
@.str.78 = private unnamed_addr constant [7 x i8] c"membio\00", align 1
@bio_out = external global ptr, align 8
@.str.80 = private unnamed_addr constant [5 x i8] c"pass\00", align 1
@.str.114 = private unnamed_addr constant [5 x i8] c"TEXT\00", align 1
@.str.115 = private unnamed_addr constant [4 x i8] c"PEM\00", align 1
@.str.116 = private unnamed_addr constant [15 x i8] c"PrivateKeyInfo\00", align 1
@.str.117 = private unnamed_addr constant [4 x i8] c"DER\00", align 1
@.str.118 = private unnamed_addr constant [21 x i8] c"SubjectPublicKeyInfo\00", align 1
@.str.119 = private unnamed_addr constant [22 x i8] c"Invalid encoding type\00", align 1
@.str.120 = private unnamed_addr constant [50 x i8] c"Setting up a OSSL_ENCODER context with passphrase\00", align 1
@.str.121 = private unnamed_addr constant [88 x i8] c"ctx = OSSL_ENCODER_CTX_new_for_pkey(pk, selection, output_type, output_structure, NULL)\00", align 1
@.str.122 = private unnamed_addr constant [39 x i8] c"OSSL_ENCODER_CTX_get_num_encoders(ctx)\00", align 1
@.str.123 = private unnamed_addr constant [27 x i8] c"Testing with no encryption\00", align 1
@.str.124 = private unnamed_addr constant [33 x i8] c"OSSL_ENCODER_to_bio(ctx, membio)\00", align 1
@.str.125 = private unnamed_addr constant [37 x i8] c"compare_with_file(alg, type, membio)\00", align 1
@.str.126 = private unnamed_addr constant [65 x i8] c"OSSL_ENCODER_CTX_set_passphrase(ctx, (unsigned char *)\22pass\22, 4)\00", align 1
@.str.127 = private unnamed_addr constant [42 x i8] c"Displaying PEM encrypted with AES-256-CBC\00", align 1
@.str.128 = private unnamed_addr constant [54 x i8] c"OSSL_ENCODER_CTX_set_cipher(ctx, \22AES-256-CBC\22, NULL)\00", align 1
@.str.129 = private unnamed_addr constant [12 x i8] c"AES-256-CBC\00", align 1
@.str.130 = private unnamed_addr constant [34 x i8] c"OSSL_ENCODER_to_bio(ctx, bio_out)\00", align 1
@.str.131 = private unnamed_addr constant [48 x i8] c"NOT Displaying PEM encrypted with (invalid) FOO\00", align 1
@.str.132 = private unnamed_addr constant [46 x i8] c"OSSL_ENCODER_CTX_set_cipher(ctx, \22FOO\22, NULL)\00", align 1
@.str.133 = private unnamed_addr constant [4 x i8] c"FOO\00", align 1
@.str.134 = private unnamed_addr constant [48 x i8] c"Testing with encryption cleared (no encryption)\00", align 1
@.str.135 = private unnamed_addr constant [45 x i8] c"OSSL_ENCODER_CTX_set_cipher(ctx, NULL, NULL)\00", align 1

; Function Attrs: nounwind uwtable
define internal i32 @test_print_key_type_using_encoder(ptr noundef %0, i32 noundef %1, ptr noundef %2) #0 {
  %4 = alloca ptr, align 8
  %5 = alloca i32, align 4
  %6 = alloca ptr, align 8
  %7 = alloca ptr, align 8
  %8 = alloca ptr, align 8
  %9 = alloca i32, align 4
  %10 = alloca ptr, align 8
  %11 = alloca ptr, align 8
  %12 = alloca i32, align 4
  store ptr %0, ptr %4, align 8, !tbaa !4
  store i32 %1, ptr %5, align 4, !tbaa !9
  store ptr %2, ptr %6, align 8, !tbaa !17
  call void @llvm.lifetime.start.p0(i64 8, ptr %7) #6
  call void @llvm.lifetime.start.p0(i64 8, ptr %8) #6
  call void @llvm.lifetime.start.p0(i64 4, ptr %9) #6
  call void @llvm.lifetime.start.p0(i64 8, ptr %10) #6
  store ptr null, ptr %10, align 8, !tbaa !43
  call void @llvm.lifetime.start.p0(i64 8, ptr %11) #6
  %13 = call ptr @BIO_s_mem()
  %14 = call ptr @BIO_new(ptr noundef %13)
  store ptr %14, ptr %11, align 8, !tbaa !37
  call void @llvm.lifetime.start.p0(i64 4, ptr %12) #6
  store i32 0, ptr %12, align 4, !tbaa !9
  %15 = load i32, ptr %5, align 4, !tbaa !9
  switch i32 %15, label %22 [
    i32 0, label %16
    i32 1, label %17
    i32 2, label %18
    i32 3, label %19
    i32 4, label %20
    i32 5, label %21
  ]

16:                                               ; preds = %3
  store ptr @.str.114, ptr %7, align 8, !tbaa !4
  store ptr null, ptr %8, align 8, !tbaa !4
  store i32 7, ptr %9, align 4, !tbaa !9
  br label %23

17:                                               ; preds = %3
  store ptr @.str.115, ptr %7, align 8, !tbaa !4
  store ptr @.str.116, ptr %8, align 8, !tbaa !4
  store i32 7, ptr %9, align 4, !tbaa !9
  br label %23

18:                                               ; preds = %3
  store ptr @.str.117, ptr %7, align 8, !tbaa !4
  store ptr @.str.116, ptr %8, align 8, !tbaa !4
  store i32 7, ptr %9, align 4, !tbaa !9
  br label %23

19:                                               ; preds = %3
  store ptr @.str.114, ptr %7, align 8, !tbaa !4
  store ptr null, ptr %8, align 8, !tbaa !4
  store i32 6, ptr %9, align 4, !tbaa !9
  br label %23

20:                                               ; preds = %3
  store ptr @.str.115, ptr %7, align 8, !tbaa !4
  store ptr @.str.118, ptr %8, align 8, !tbaa !4
  store i32 6, ptr %9, align 4, !tbaa !9
  br label %23

21:                                               ; preds = %3
  store ptr @.str.117, ptr %7, align 8, !tbaa !4
  store ptr @.str.118, ptr %8, align 8, !tbaa !4
  store i32 6, ptr %9, align 4, !tbaa !9
  br label %23

22:                                               ; preds = %3
  call void (ptr, i32, ptr, ...) @test_error(ptr noundef @.str, i32 noundef 258, ptr noundef @.str.119)
  br label %130

23:                                               ; preds = %21, %20, %19, %18, %17, %16
  %24 = load ptr, ptr %11, align 8, !tbaa !37
  %25 = call i32 @test_ptr(ptr noundef @.str, i32 noundef 262, ptr noundef @.str.78, ptr noundef %24)
  %26 = icmp ne i32 %25, 0
  br i1 %26, label %28, label %27

27:                                               ; preds = %23
  br label %130

28:                                               ; preds = %23
  call void (ptr, ...) @test_note(ptr noundef @.str.120)
  %29 = load ptr, ptr %6, align 8, !tbaa !17
  %30 = load i32, ptr %9, align 4, !tbaa !9
  %31 = load ptr, ptr %7, align 8, !tbaa !4
  %32 = load ptr, ptr %8, align 8, !tbaa !4
  %33 = call ptr @OSSL_ENCODER_CTX_new_for_pkey(ptr noundef %29, i32 noundef %30, ptr noundef %31, ptr noundef %32, ptr noundef null)
  store ptr %33, ptr %10, align 8, !tbaa !43
  %34 = call i32 @test_ptr(ptr noundef @.str, i32 noundef 270, ptr noundef @.str.121, ptr noundef %33)
  %35 = icmp ne i32 %34, 0
  br i1 %35, label %36, label %41

36:                                               ; preds = %28
  %37 = load ptr, ptr %10, align 8, !tbaa !43
  %38 = call i32 @OSSL_ENCODER_CTX_get_num_encoders(ptr noundef %37)
  %39 = call i32 @test_int_ne(ptr noundef @.str, i32 noundef 272, ptr noundef @.str.122, ptr noundef @.str.66, i32 noundef %38, i32 noundef 0)
  %40 = icmp ne i32 %39, 0
  br i1 %40, label %42, label %41

41:                                               ; preds = %36, %28
  br label %130

42:                                               ; preds = %36
  call void (ptr, ...) @test_note(ptr noundef @.str.123)
  %43 = load ptr, ptr %10, align 8, !tbaa !43
  %44 = load ptr, ptr %11, align 8, !tbaa !37
  %45 = call i32 @OSSL_ENCODER_to_bio(ptr noundef %43, ptr noundef %44)
  %46 = icmp ne i32 %45, 0
  %47 = zext i1 %46 to i32
  %48 = call i32 @test_true(ptr noundef @.str, i32 noundef 277, ptr noundef @.str.124, i32 noundef %47)
  %49 = icmp ne i32 %48, 0
  br i1 %49, label %50, label %59

50:                                               ; preds = %42
  %51 = load ptr, ptr %4, align 8, !tbaa !4
  %52 = load i32, ptr %5, align 4, !tbaa !9
  %53 = load ptr, ptr %11, align 8, !tbaa !37
  %54 = call i32 @compare_with_file(ptr noundef %51, i32 noundef %52, ptr noundef %53)
  %55 = icmp ne i32 %54, 0
  %56 = zext i1 %55 to i32
  %57 = call i32 @test_true(ptr noundef @.str, i32 noundef 278, ptr noundef @.str.125, i32 noundef %56)
  %58 = icmp ne i32 %57, 0
  br i1 %58, label %60, label %59

59:                                               ; preds = %50, %42
  br label %130

60:                                               ; preds = %50
  %61 = load i32, ptr %5, align 4, !tbaa !9
  %62 = icmp eq i32 %61, 1
  br i1 %62, label %63, label %129

63:                                               ; preds = %60
  %64 = load ptr, ptr %10, align 8, !tbaa !43
  %65 = call i32 @OSSL_ENCODER_CTX_set_passphrase(ptr noundef %64, ptr noundef @.str.80, i64 noundef 4)
  %66 = icmp ne i32 %65, 0
  %67 = zext i1 %66 to i32
  %68 = call i32 @test_true(ptr noundef @.str, i32 noundef 285, ptr noundef @.str.126, i32 noundef %67)
  %69 = icmp ne i32 %68, 0
  br i1 %69, label %71, label %70

70:                                               ; preds = %63
  br label %130

71:                                               ; preds = %63
  call void (ptr, ...) @test_note(ptr noundef @.str.127)
  %72 = load ptr, ptr %10, align 8, !tbaa !43
  %73 = call i32 @OSSL_ENCODER_CTX_set_cipher(ptr noundef %72, ptr noundef @.str.129, ptr noundef null)
  %74 = icmp ne i32 %73, 0
  %75 = zext i1 %74 to i32
  %76 = call i32 @test_true(ptr noundef @.str, i32 noundef 290, ptr noundef @.str.128, i32 noundef %75)
  %77 = icmp ne i32 %76, 0
  br i1 %77, label %78, label %86

78:                                               ; preds = %71
  %79 = load ptr, ptr %10, align 8, !tbaa !43
  %80 = load ptr, ptr @bio_out, align 8, !tbaa !37
  %81 = call i32 @OSSL_ENCODER_to_bio(ptr noundef %79, ptr noundef %80)
  %82 = icmp ne i32 %81, 0
  %83 = zext i1 %82 to i32
  %84 = call i32 @test_true(ptr noundef @.str, i32 noundef 291, ptr noundef @.str.130, i32 noundef %83)
  %85 = icmp ne i32 %84, 0
  br i1 %85, label %87, label %86

86:                                               ; preds = %78, %71
  br label %130

87:                                               ; preds = %78
  call void (ptr, ...) @test_note(ptr noundef @.str.131)
  %88 = load ptr, ptr %10, align 8, !tbaa !43
  %89 = call i32 @OSSL_ENCODER_CTX_set_cipher(ptr noundef %88, ptr noundef @.str.133, ptr noundef null)
  %90 = icmp ne i32 %89, 0
  %91 = zext i1 %90 to i32
  %92 = call i32 @test_false(ptr noundef @.str, i32 noundef 296, ptr noundef @.str.132, i32 noundef %91)
  %93 = icmp ne i32 %92, 0
  br i1 %93, label %94, label %102

94:                                               ; preds = %87
  %95 = load ptr, ptr %10, align 8, !tbaa !43
  %96 = load ptr, ptr @bio_out, align 8, !tbaa !37
  %97 = call i32 @OSSL_ENCODER_to_bio(ptr noundef %95, ptr noundef %96)
  %98 = icmp ne i32 %97, 0
  %99 = zext i1 %98 to i32
  %100 = call i32 @test_false(ptr noundef @.str, i32 noundef 297, ptr noundef @.str.130, i32 noundef %99)
  %101 = icmp ne i32 %100, 0
  br i1 %101, label %103, label %102

102:                                              ; preds = %94, %87
  br label %130

103:                                              ; preds = %94
  call void (ptr, ...) @test_note(ptr noundef @.str.134)
  %104 = load ptr, ptr %10, align 8, !tbaa !43
  %105 = call i32 @OSSL_ENCODER_CTX_set_cipher(ptr noundef %104, ptr noundef null, ptr noundef null)
  %106 = icmp ne i32 %105, 0
  %107 = zext i1 %106 to i32
  %108 = call i32 @test_true(ptr noundef @.str, i32 noundef 302, ptr noundef @.str.135, i32 noundef %107)
  %109 = icmp ne i32 %108, 0
  br i1 %109, label %110, label %127

110:                                              ; preds = %103
  %111 = load ptr, ptr %10, align 8, !tbaa !43
  %112 = load ptr, ptr %11, align 8, !tbaa !37
  %113 = call i32 @OSSL_ENCODER_to_bio(ptr noundef %111, ptr noundef %112)
  %114 = icmp ne i32 %113, 0
  %115 = zext i1 %114 to i32
  %116 = call i32 @test_true(ptr noundef @.str, i32 noundef 303, ptr noundef @.str.124, i32 noundef %115)
  %117 = icmp ne i32 %116, 0
  br i1 %117, label %118, label %127

118:                                              ; preds = %110
  %119 = load ptr, ptr %4, align 8, !tbaa !4
  %120 = load i32, ptr %5, align 4, !tbaa !9
  %121 = load ptr, ptr %11, align 8, !tbaa !37
  %122 = call i32 @compare_with_file(ptr noundef %119, i32 noundef %120, ptr noundef %121)
  %123 = icmp ne i32 %122, 0
  %124 = zext i1 %123 to i32
  %125 = call i32 @test_true(ptr noundef @.str, i32 noundef 304, ptr noundef @.str.125, i32 noundef %124)
  %126 = icmp ne i32 %125, 0
  br i1 %126, label %128, label %127

127:                                              ; preds = %118, %110, %103
  br label %130

128:                                              ; preds = %118
  br label %129

129:                                              ; preds = %128, %60
  store i32 1, ptr %12, align 4, !tbaa !9
  br label %130

130:                                              ; preds = %129, %127, %102, %86, %70, %59, %41, %27, %22
  %131 = load ptr, ptr %11, align 8, !tbaa !37
  %132 = call i32 @BIO_free(ptr noundef %131)
  %133 = load ptr, ptr %10, align 8, !tbaa !43
  call void @OSSL_ENCODER_CTX_free(ptr noundef %133)
  %134 = load i32, ptr %12, align 4, !tbaa !9
  call void @llvm.lifetime.end.p0(i64 4, ptr %12) #6
  call void @llvm.lifetime.end.p0(i64 8, ptr %11) #6
  call void @llvm.lifetime.end.p0(i64 8, ptr %10) #6
  call void @llvm.lifetime.end.p0(i64 4, ptr %9) #6
  call void @llvm.lifetime.end.p0(i64 8, ptr %8) #6
  call void @llvm.lifetime.end.p0(i64 8, ptr %7) #6
  ret i32 %134
}