; Function Attrs: nounwind uwtable
define internal fastcc range(i32 0, 2) i32 @test_print_key_type_using_encoder(ptr noundef %0, i32 noundef range(i32 -2147483648, 6) %1, ptr noundef %2) unnamed_addr #0 {
  %4 = tail call ptr @BIO_s_mem() #6
  %5 = tail call ptr @BIO_new(ptr noundef %4) #6
  %6 = icmp ult i32 %1, 6
  br i1 %6, label %switch.lookup, label %7

7:                                                ; preds = %3
  tail call void (ptr, i32, ptr, ...) @test_error(ptr noundef nonnull @.str, i32 noundef 258, ptr noundef nonnull @.str.119) #6
  br label %69

switch.lookup:                                    ; preds = %3
  %8 = zext nneg i32 %1 to i64
  %switch.gep = getelementptr inbounds nuw [6 x ptr], ptr @switch.table.test_print_key_type_using_encoder, i64 0, i64 %8
  %switch.load = load ptr, ptr %switch.gep, align 8
  %9 = zext nneg i32 %1 to i64
  %switch.gep43 = getelementptr inbounds nuw [6 x i32], ptr @switch.table.test_print_key_type_using_encoder.2, i64 0, i64 %9
  %switch.load44 = load i32, ptr %switch.gep43, align 4
  %10 = zext nneg i32 %1 to i64
  %switch.gep45 = getelementptr inbounds nuw [6 x ptr], ptr @switch.table.test_print_key_type_using_encoder.3, i64 0, i64 %10
  %switch.load46 = load ptr, ptr %switch.gep45, align 8
  %11 = tail call i32 @test_ptr(ptr noundef nonnull @.str, i32 noundef 262, ptr noundef nonnull @.str.78, ptr noundef %5) #6
  %.not = icmp eq i32 %11, 0
  br i1 %.not, label %69, label %12

12:                                               ; preds = %switch.lookup
  tail call void (ptr, ...) @test_note(ptr noundef nonnull @.str.120) #6
  %13 = tail call ptr @OSSL_ENCODER_CTX_new_for_pkey(ptr noundef %2, i32 noundef %switch.load44, ptr noundef nonnull %switch.load46, ptr noundef %switch.load, ptr noundef null) #6
  %14 = tail call i32 @test_ptr(ptr noundef nonnull @.str, i32 noundef 270, ptr noundef nonnull @.str.121, ptr noundef %13) #6
  %.not31 = icmp eq i32 %14, 0
  br i1 %.not31, label %69, label %15

15:                                               ; preds = %12
  %16 = tail call i32 @OSSL_ENCODER_CTX_get_num_encoders(ptr noundef %13) #6
  %17 = tail call i32 @test_int_ne(ptr noundef nonnull @.str, i32 noundef 272, ptr noundef nonnull @.str.122, ptr noundef nonnull @.str.66, i32 noundef %16, i32 noundef 0) #6
  %.not32 = icmp eq i32 %17, 0
  br i1 %.not32, label %69, label %18

18:                                               ; preds = %15
  tail call void (ptr, ...) @test_note(ptr noundef nonnull @.str.123) #6
  %19 = tail call i32 @OSSL_ENCODER_to_bio(ptr noundef %13, ptr noundef %5) #6
  %20 = icmp ne i32 %19, 0
  %21 = zext i1 %20 to i32
  %22 = tail call i32 @test_true(ptr noundef nonnull @.str, i32 noundef 277, ptr noundef nonnull @.str.124, i32 noundef %21) #6
  %.not33 = icmp eq i32 %22, 0
  br i1 %.not33, label %69, label %23

23:                                               ; preds = %18
  %24 = tail call fastcc i32 @compare_with_file(ptr noundef %0, i32 noundef %1, ptr noundef %5)
  %25 = tail call i32 @test_true(ptr noundef nonnull @.str, i32 noundef 278, ptr noundef nonnull @.str.125, i32 noundef %24) #6
  %.not34 = icmp eq i32 %25, 0
  br i1 %.not34, label %69, label %26

26:                                               ; preds = %23
  %27 = icmp eq i32 %1, 1
  br i1 %27, label %28, label %68

28:                                               ; preds = %26
  %29 = tail call i32 @OSSL_ENCODER_CTX_set_passphrase(ptr noundef %13, ptr noundef nonnull @.str.80, i64 noundef 4) #6
  %30 = icmp ne i32 %29, 0
  %31 = zext i1 %30 to i32
  %32 = tail call i32 @test_true(ptr noundef nonnull @.str, i32 noundef 285, ptr noundef nonnull @.str.126, i32 noundef %31) #6
  %.not35 = icmp eq i32 %32, 0
  br i1 %.not35, label %69, label %33

33:                                               ; preds = %28
  tail call void (ptr, ...) @test_note(ptr noundef nonnull @.str.127) #6
  %34 = tail call i32 @OSSL_ENCODER_CTX_set_cipher(ptr noundef %13, ptr noundef nonnull @.str.129, ptr noundef null) #6
  %35 = icmp ne i32 %34, 0
  %36 = zext i1 %35 to i32
  %37 = tail call i32 @test_true(ptr noundef nonnull @.str, i32 noundef 290, ptr noundef nonnull @.str.128, i32 noundef %36) #6
  %.not36 = icmp eq i32 %37, 0
  br i1 %.not36, label %69, label %38

38:                                               ; preds = %33
  %39 = load ptr, ptr @bio_out, align 8, !tbaa !31
  %40 = tail call i32 @OSSL_ENCODER_to_bio(ptr noundef %13, ptr noundef %39) #6
  %41 = icmp ne i32 %40, 0
  %42 = zext i1 %41 to i32
  %43 = tail call i32 @test_true(ptr noundef nonnull @.str, i32 noundef 291, ptr noundef nonnull @.str.130, i32 noundef %42) #6
  %.not37 = icmp eq i32 %43, 0
  br i1 %.not37, label %69, label %44

44:                                               ; preds = %38
  tail call void (ptr, ...) @test_note(ptr noundef nonnull @.str.131) #6
  %45 = tail call i32 @OSSL_ENCODER_CTX_set_cipher(ptr noundef %13, ptr noundef nonnull @.str.133, ptr noundef null) #6
  %46 = icmp ne i32 %45, 0
  %47 = zext i1 %46 to i32
  %48 = tail call i32 @test_false(ptr noundef nonnull @.str, i32 noundef 296, ptr noundef nonnull @.str.132, i32 noundef %47) #6
  %.not38 = icmp eq i32 %48, 0
  br i1 %.not38, label %69, label %49

49:                                               ; preds = %44
  %50 = load ptr, ptr @bio_out, align 8, !tbaa !31
  %51 = tail call i32 @OSSL_ENCODER_to_bio(ptr noundef %13, ptr noundef %50) #6
  %52 = icmp ne i32 %51, 0
  %53 = zext i1 %52 to i32
  %54 = tail call i32 @test_false(ptr noundef nonnull @.str, i32 noundef 297, ptr noundef nonnull @.str.130, i32 noundef %53) #6
  %.not39 = icmp eq i32 %54, 0
  br i1 %.not39, label %69, label %55

55:                                               ; preds = %49
  tail call void (ptr, ...) @test_note(ptr noundef nonnull @.str.134) #6
  %56 = tail call i32 @OSSL_ENCODER_CTX_set_cipher(ptr noundef %13, ptr noundef null, ptr noundef null) #6
  %57 = icmp ne i32 %56, 0
  %58 = zext i1 %57 to i32
  %59 = tail call i32 @test_true(ptr noundef nonnull @.str, i32 noundef 302, ptr noundef nonnull @.str.135, i32 noundef %58) #6
  %.not40 = icmp eq i32 %59, 0
  br i1 %.not40, label %69, label %60

60:                                               ; preds = %55
  %61 = tail call i32 @OSSL_ENCODER_to_bio(ptr noundef %13, ptr noundef %5) #6
  %62 = icmp ne i32 %61, 0
  %63 = zext i1 %62 to i32
  %64 = tail call i32 @test_true(ptr noundef nonnull @.str, i32 noundef 303, ptr noundef nonnull @.str.124, i32 noundef %63) #6
  %.not41 = icmp eq i32 %64, 0
  br i1 %.not41, label %69, label %65

65:                                               ; preds = %60
  %66 = tail call fastcc i32 @compare_with_file(ptr noundef %0, i32 noundef 1, ptr noundef %5)
  %67 = tail call i32 @test_true(ptr noundef nonnull @.str, i32 noundef 304, ptr noundef nonnull @.str.125, i32 noundef %66) #6
  %.not42 = icmp eq i32 %67, 0
  br i1 %.not42, label %69, label %68

68:                                               ; preds = %65, %26
  br label %69

69:                                               ; preds = %55, %60, %65, %44, %49, %33, %38, %28, %18, %23, %12, %15, %switch.lookup, %68, %7
  %.027 = phi ptr [ null, %7 ], [ %13, %68 ], [ %13, %65 ], [ %13, %60 ], [ %13, %55 ], [ %13, %49 ], [ %13, %44 ], [ %13, %38 ], [ %13, %33 ], [ %13, %28 ], [ %13, %23 ], [ %13, %18 ], [ %13, %15 ], [ %13, %12 ], [ null, %switch.lookup ]
  %.0 = phi i32 [ 0, %7 ], [ 1, %68 ], [ 0, %65 ], [ 0, %60 ], [ 0, %55 ], [ 0, %49 ], [ 0, %44 ], [ 0, %38 ], [ 0, %33 ], [ 0, %28 ], [ 0, %23 ], [ 0, %18 ], [ 0, %15 ], [ 0, %12 ], [ 0, %switch.lookup ]
  %70 = tail call i32 @BIO_free(ptr noundef %5) #6
  tail call void @OSSL_ENCODER_CTX_free(ptr noundef %.027) #6
  ret i32 %.0
}